target datalayout = "e-m:e-p270:32:32-p271:32:32-p272:64:64-i64:64-i128:128-f80:128-n8:16:32:64-S128"
target triple = "x86_64-pc-linux-gnu"

%struct.reftable_buf = type { i64, i64, ptr }

; Function Attrs: nounwind uwtable
define dso_local i32 @reftable_buf_setlen(ptr noundef %0, i64 noundef %1) #0 {
  %3 = alloca i32, align 4
  %4 = alloca ptr, align 8
  %5 = alloca i64, align 8
  store ptr %0, ptr %4, align 8, !tbaa !12
  store i64 %1, ptr %5, align 8, !tbaa !4
  %6 = load i64, ptr %5, align 8, !tbaa !4
  %7 = load ptr, ptr %4, align 8, !tbaa !12
  %8 = getelementptr inbounds nuw %struct.reftable_buf, ptr %7, i32 0, i32 1
  %9 = load i64, ptr %8, align 8, !tbaa !18
  %10 = icmp ugt i64 %6, %9
  br i1 %10, label %11, label %12

11:                                               ; preds = %2
  store i32 -1, ptr %3, align 4
  br label %28

12:                                               ; preds = %2
  %13 = load i64, ptr %5, align 8, !tbaa !4
  %14 = load ptr, ptr %4, align 8, !tbaa !12
  %15 = getelementptr inbounds nuw %struct.reftable_buf, ptr %14, i32 0, i32 1
  %16 = load i64, ptr %15, align 8, !tbaa !18
  %17 = icmp eq i64 %13, %16
  br i1 %17, label %18, label %19

18:                                               ; preds = %12
  store i32 0, ptr %3, align 4
  br label %28

19:                                               ; preds = %12
  %20 = load ptr, ptr %4, align 8, !tbaa !12
  %21 = getelementptr inbounds nuw %struct.reftable_buf, ptr %20, i32 0, i32 2
  %22 = load ptr, ptr %21, align 8, !tbaa !15
  %23 = load i64, ptr %5, align 8, !tbaa !4
  %24 = getelementptr inbounds nuw i8, ptr %22, i64 %23
  store i8 0, ptr %24, align 1, !tbaa !19
  %25 = load i64, ptr %5, align 8, !tbaa !4
  %26 = load ptr, ptr %4, align 8, !tbaa !12
  %27 = getelementptr inbounds nuw %struct.reftable_buf, ptr %26, i32 0, i32 1
  store i64 %25, ptr %27, align 8, !tbaa !18
  store i32 0, ptr %3, align 4
  br label %28

28:                                               ; preds = %19, %18, %11
  %29 = load i32, ptr %3, align 4
  ret i32 %29
}