; Function Attrs: mustprogress nofree norecurse nosync nounwind willreturn memory(write, argmem: readwrite, inaccessiblemem: none) uwtable
define dso_local range(i32 -1, 1) i32 @reftable_buf_setlen(ptr noundef captures(none) %0, i64 noundef %1) local_unnamed_addr #9 {
  %3 = getelementptr inbounds nuw i8, ptr %0, i64 8
  %4 = load i64, ptr %3, align 8, !tbaa !13
  %5 = icmp ugt i64 %1, %4
  br i1 %5, label %12, label %6

6:                                                ; preds = %2
  %7 = icmp eq i64 %1, %4
  br i1 %7, label %12, label %8

8:                                                ; preds = %6
  %9 = getelementptr inbounds nuw i8, ptr %0, i64 16
  %10 = load ptr, ptr %9, align 8, !tbaa !8
  %11 = getelementptr inbounds nuw i8, ptr %10, i64 %1
  store i8 0, ptr %11, align 1, !tbaa !14
  store i64 %1, ptr %3, align 8, !tbaa !13
  br label %12

12:                                               ; preds = %6, %2, %8
  %.0 = phi i32 [ 0, %8 ], [ -1, %2 ], [ 0, %6 ]
  ret i32 %.0
}